; Function Attrs: mustprogress nounwind uwtable
define void @_Z15output_env_doneP16gmx_output_env_t(ptr noundef %0) local_unnamed_addr #11 {
  %2 = icmp eq ptr %0, null
  br i1 %2, label %4, label %3

3:                                                ; preds = %1
  tail call void @_ZdlPvm(ptr noundef nonnull %0, i64 noundef 32) #20
  br label %4

4:                                                ; preds = %3, %1
  ret void
}